; ModuleID = '14/1373.c'
source_filename = "14/1373.c"
target datalayout = "e-m:e-p270:32:32-p271:32:32-p272:64:64-i64:64-f80:128-n8:16:32:64-S128"
target triple = "x86_64-pc-linux-gnu"

%struct.student = type { i64, i32, i32 }

@.str = private unnamed_addr constant [3 x i8] c"%d\00", align 1
@.str.1 = private unnamed_addr constant [9 x i8] c"%d %d %d\00", align 1
@.str.2 = private unnamed_addr constant [18 x i8] c"%d %d\0A%d %d\0A%d %d\00", align 1

; Function Attrs: noinline nounwind uwtable
define dso_local void @main() #0 {
  %1 = alloca [100000 x %struct.student], align 16
  %2 = alloca i64, align 8
  %3 = alloca i32, align 4
  %4 = alloca i32, align 4
  %5 = alloca i32, align 4
  %6 = alloca i32, align 4
  %7 = alloca i32, align 4
  %8 = alloca i32, align 4
  %9 = alloca i32, align 4
  %10 = alloca i32, align 4
  %11 = alloca i32, align 4
  %12 = alloca i32, align 4
  store i32 0, i32* %7, align 4
  store i32 0, i32* %8, align 4
  store i32 0, i32* %9, align 4
  store i32 0, i32* %12, align 4
  store i32 0, i32* %11, align 4
  store i32 0, i32* %10, align 4
  %13 = call i32 (i8*, ...) @__isoc99_scanf(i8* getelementptr inbounds ([3 x i8], [3 x i8]* @.str, i64 0, i64 0), i64* %2)
  store i32 0, i32* %3, align 4
  br label %14

14:                                               ; preds = %78, %0
  %15 = load i32, i32* %3, align 4
  %16 = sext i32 %15 to i64
  %17 = load i64, i64* %2, align 8
  %18 = icmp slt i64 %16, %17
  br i1 %18, label %19, label %81

19:                                               ; preds = %14
  %20 = load i32, i32* %3, align 4
  %21 = sext i32 %20 to i64
  %22 = getelementptr inbounds [100000 x %struct.student], [100000 x %struct.student]* %1, i64 0, i64 %21
  %23 = getelementptr inbounds %struct.student, %struct.student* %22, i32 0, i32 0
  %24 = load i32, i32* %3, align 4
  %25 = sext i32 %24 to i64
  %26 = getelementptr inbounds [100000 x %struct.student], [100000 x %struct.student]* %1, i64 0, i64 %25
  %27 = getelementptr inbounds %struct.student, %struct.student* %26, i32 0, i32 1
  %28 = load i32, i32* %3, align 4
  %29 = sext i32 %28 to i64
  %30 = getelementptr inbounds [100000 x %struct.student], [100000 x %struct.student]* %1, i64 0, i64 %29
  %31 = getelementptr inbounds %struct.student, %struct.student* %30, i32 0, i32 2
  %32 = call i32 (i8*, ...) @__isoc99_scanf(i8* getelementptr inbounds ([9 x i8], [9 x i8]* @.str.1, i64 0, i64 0), i64* %23, i32* %27, i32* %31)
  %33 = load i32, i32* %3, align 4
  %34 = sext i32 %33 to i64
  %35 = getelementptr inbounds [100000 x %struct.student], [100000 x %struct.student]* %1, i64 0, i64 %34
  %36 = getelementptr inbounds %struct.student, %struct.student* %35, i32 0, i32 1
  %37 = load i32, i32* %36, align 8
  %38 = load i32, i32* %3, align 4
  %39 = sext i32 %38 to i64
  %40 = getelementptr inbounds [100000 x %struct.student], [100000 x %struct.student]* %1, i64 0, i64 %39
  %41 = getelementptr inbounds %struct.student, %struct.student* %40, i32 0, i32 2
  %42 = load i32, i32* %41, align 4
  %43 = add nsw i32 %37, %42
  store i32 %43, i32* %5, align 4
  %44 = load i32, i32* %5, align 4
  %45 = load i32, i32* %9, align 4
  %46 = icmp sgt i32 %44, %45
  br i1 %46, label %47, label %55

47:                                               ; preds = %19
  %48 = load i32, i32* %5, align 4
  store i32 %48, i32* %9, align 4
  %49 = load i32, i32* %3, align 4
  %50 = sext i32 %49 to i64
  %51 = getelementptr inbounds [100000 x %struct.student], [100000 x %struct.student]* %1, i64 0, i64 %50
  %52 = getelementptr inbounds %struct.student, %struct.student* %51, i32 0, i32 0
  %53 = load i64, i64* %52, align 16
  %54 = trunc i64 %53 to i32
  store i32 %54, i32* %12, align 4
  br label %55

55:                                               ; preds = %47, %19
  %56 = load i32, i32* %9, align 4
  %57 = load i32, i32* %8, align 4
  %58 = icmp sgt i32 %56, %57
  br i1 %58, label %59, label %66

59:                                               ; preds = %55
  %60 = load i32, i32* %9, align 4
  store i32 %60, i32* %6, align 4
  %61 = load i32, i32* %8, align 4
  store i32 %61, i32* %9, align 4
  %62 = load i32, i32* %6, align 4
  store i32 %62, i32* %8, align 4
  %63 = load i32, i32* %12, align 4
  store i32 %63, i32* %6, align 4
  %64 = load i32, i32* %11, align 4
  store i32 %64, i32* %12, align 4
  %65 = load i32, i32* %6, align 4
  store i32 %65, i32* %11, align 4
  br label %66

66:                                               ; preds = %59, %55
  %67 = load i32, i32* %8, align 4
  %68 = load i32, i32* %7, align 4
  %69 = icmp sgt i32 %67, %68
  br i1 %69, label %70, label %77

70:                                               ; preds = %66
  %71 = load i32, i32* %8, align 4
  store i32 %71, i32* %6, align 4
  %72 = load i32, i32* %7, align 4
  store i32 %72, i32* %8, align 4
  %73 = load i32, i32* %6, align 4
  store i32 %73, i32* %7, align 4
  %74 = load i32, i32* %11, align 4
  store i32 %74, i32* %6, align 4
  %75 = load i32, i32* %10, align 4
  store i32 %75, i32* %11, align 4
  %76 = load i32, i32* %6, align 4
  store i32 %76, i32* %10, align 4
  br label %77

77:                                               ; preds = %70, %66
  br label %78

78:                                               ; preds = %77
  %79 = load i32, i32* %3, align 4
  %80 = add nsw i32 %79, 1
  store i32 %80, i32* %3, align 4
  br label %14

81:                                               ; preds = %14
  %82 = load i32, i32* %10, align 4
  %83 = load i32, i32* %7, align 4
  %84 = load i32, i32* %11, align 4
  %85 = load i32, i32* %8, align 4
  %86 = load i32, i32* %12, align 4
  %87 = load i32, i32* %9, align 4
  %88 = call i32 (i8*, ...) @printf(i8* getelementptr inbounds ([18 x i8], [18 x i8]* @.str.2, i64 0, i64 0), i32 %82, i32 %83, i32 %84, i32 %85, i32 %86, i32 %87)
  ret void
}

declare dso_local i32 @__isoc99_scanf(i8*, ...) #1

declare dso_local i32 @printf(i8*, ...) #1


!llvm.module.flags = !{!0}
!llvm.ident = !{!1}

!0 = !{i32 1, !"wchar_size", i32 4}
!1 = !{!"clang version 10.0.0-4ubuntu1 "}
